target datalayout = "e-m:e-p270:32:32-p271:32:32-p272:64:64-i64:64-i128:128-f80:128-n8:16:32:64-S128"
target triple = "x86_64-pc-linux-gnu"

%struct._zend_array = type { %struct._zend_refcounted_h, %union.anon.17, i32, %union.anon.19, i32, i32, i32, i32, i64, ptr }
%struct._zend_refcounted_h = type { i32, %union.anon.16 }
%union.anon.16 = type { i32 }
%union.anon.17 = type { i32 }
%union.anon.19 = type { ptr }
%struct._zval_struct = type { %union._zend_value, %union.anon.21, %union.anon.24 }
%union._zend_value = type { i64 }
%union.anon.21 = type { i32 }
%union.anon.24 = type { i32 }
%struct._ir_ctx = type { ptr, i32, i32, i32, i32, i32, i32, i32, i32, i32, i32, %struct._ir_insn, ptr, ptr, ptr, i32, i32, i32, ptr, ptr, ptr, ptr, ptr, i32, i32, i64, i32, i32, i32, i64, i32, i32, i32, i32, ptr, ptr, ptr, ptr, ptr, ptr, %union.anon.13, ptr, i32, i32, i32, i64, i32, i32, i32, ptr, ptr, ptr, ptr, %struct._ir_strtab, [61 x i32], [14 x i32] }
%struct._ir_insn = type { %struct.anon, %union.anon.5 }
%struct.anon = type { %union.anon, %union.anon.4 }
%union.anon = type { i32 }
%union.anon.4 = type { i32 }
%union.anon.5 = type { %union._ir_val }
%union._ir_val = type { double }
%union.anon.13 = type { ptr }
%struct._ir_strtab = type { ptr, i32, i32, i32, i32, ptr, i32, i32 }
%struct._zend_jit_ctx = type { %struct._ir_ctx, ptr, i8, i8, i8, i32, i32, i32, i32, i32, ptr, ptr, ptr, ptr, ptr, ptr, ptr, ptr, ptr, i32, ptr, i32, %struct._zend_array, [32 x i32] }
%struct.anon.0 = type { %union.anon.1, %union.anon.3 }
%union.anon.1 = type { i16 }
%union.anon.3 = type { i16 }
%struct.anon.2 = type { i8, i8 }

; Function Attrs: nounwind uwtable
define internal i32 @jit_CONST_ADDR(ptr noundef %0, i64 noundef %1) #0 {
  %3 = alloca ptr, align 8
  %4 = alloca i32, align 4
  %5 = alloca ptr, align 8
  %6 = alloca i64, align 8
  %7 = alloca i32, align 4
  %8 = alloca ptr, align 8
  %9 = alloca ptr, align 8
  store ptr %0, ptr %5, align 8
  store i64 %1, ptr %6, align 8
  %10 = load i64, ptr %6, align 8
  %11 = icmp eq i64 %10, 0
  br i1 %11, label %12, label %13

12:                                               ; preds = %2
  store i32 -1, ptr %4, align 4
  br label %58

13:                                               ; preds = %2
  %14 = load ptr, ptr %5, align 8
  %15 = getelementptr inbounds %struct._zend_jit_ctx, ptr %14, i32 0, i32 22
  %16 = load i64, ptr %6, align 8
  %17 = call ptr @zend_hash_index_lookup(ptr noundef %15, i64 noundef %16)
  store ptr %17, ptr %8, align 8
  %18 = load ptr, ptr %8, align 8
  store ptr %18, ptr %3, align 8
  %19 = load ptr, ptr %3, align 8
  %20 = getelementptr inbounds %struct._zval_struct, ptr %19, i32 0, i32 1
  %21 = load i8, ptr %20, align 8
  %22 = zext i8 %21 to i32
  %23 = icmp eq i32 %22, 4
  br i1 %23, label %24, label %42

24:                                               ; preds = %13
  %25 = load ptr, ptr %8, align 8
  %26 = getelementptr inbounds %struct._zval_struct, ptr %25, i32 0, i32 0
  %27 = load i64, ptr %26, align 8
  %28 = trunc i64 %27 to i32
  store i32 %28, ptr %7, align 4
  %29 = load ptr, ptr %5, align 8
  %30 = getelementptr inbounds %struct._zend_jit_ctx, ptr %29, i32 0, i32 0
  %31 = getelementptr inbounds %struct._ir_ctx, ptr %30, i32 0, i32 0
  %32 = load ptr, ptr %31, align 8
  %33 = load i32, ptr %7, align 4
  %34 = sext i32 %33 to i64
  %35 = getelementptr inbounds %struct._ir_insn, ptr %32, i64 %34
  %36 = getelementptr inbounds %struct._ir_insn, ptr %35, i32 0, i32 0
  %37 = getelementptr inbounds %struct.anon, ptr %36, i32 0, i32 0
  %38 = getelementptr inbounds %struct.anon.0, ptr %37, i32 0, i32 0
  %39 = load i16, ptr %38, align 8
  %40 = zext i16 %39 to i32
  %41 = icmp eq i32 %40, 1542
  call void @llvm.assume(i1 %41)
  br label %56

42:                                               ; preds = %13
  %43 = load ptr, ptr %5, align 8
  %44 = getelementptr inbounds %struct._zend_jit_ctx, ptr %43, i32 0, i32 0
  %45 = load i64, ptr %6, align 8
  %46 = call i32 @ir_unique_const_addr(ptr noundef %44, i64 noundef %45)
  store i32 %46, ptr %7, align 4
  br label %47

47:                                               ; preds = %42
  %48 = load ptr, ptr %8, align 8
  store ptr %48, ptr %9, align 8
  %49 = load i32, ptr %7, align 4
  %50 = sext i32 %49 to i64
  %51 = load ptr, ptr %9, align 8
  %52 = getelementptr inbounds %struct._zval_struct, ptr %51, i32 0, i32 0
  store i64 %50, ptr %52, align 8
  %53 = load ptr, ptr %9, align 8
  %54 = getelementptr inbounds %struct._zval_struct, ptr %53, i32 0, i32 1
  store i32 4, ptr %54, align 8
  br label %55

55:                                               ; preds = %47
  br label %56

56:                                               ; preds = %55, %24
  %57 = load i32, ptr %7, align 4
  store i32 %57, ptr %4, align 4
  br label %58

58:                                               ; preds = %56, %12
  %59 = load i32, ptr %4, align 4
  ret i32 %59
}

; Function Attrs: nounwind uwtable
define internal i32 @jit_Z_TYPE_INFO_ref(ptr noundef %0, i32 noundef %1) #0 {
  %3 = alloca ptr, align 8
  %4 = alloca i32, align 4
  store ptr %0, ptr %3, align 8
  store i32 %1, ptr %4, align 4
  %5 = load ptr, ptr %3, align 8
  %6 = getelementptr inbounds %struct._zend_jit_ctx, ptr %5, i32 0, i32 0
  %7 = load ptr, ptr %3, align 8
  %8 = load i32, ptr %4, align 4
  %9 = call i32 @jit_ADD_OFFSET(ptr noundef %7, i32 noundef %8, i64 noundef 8)
  %10 = call i32 @_ir_LOAD(ptr noundef %6, i32 noundef 4, i32 noundef %9)
  ret i32 %10
}

; Function Attrs: nounwind uwtable
define internal i32 @jit_ADD_OFFSET(ptr noundef %0, i32 noundef %1, i64 noundef %2) #0 {
  %4 = alloca ptr, align 8
  %5 = alloca i32, align 4
  %6 = alloca i64, align 8
  store ptr %0, ptr %4, align 8
  store i32 %1, ptr %5, align 4
  store i64 %2, ptr %6, align 8
  %7 = load i64, ptr %6, align 8
  %8 = icmp ne i64 %7, 0
  br i1 %8, label %9, label %17

9:                                                ; preds = %3
  %10 = load ptr, ptr %4, align 8
  %11 = getelementptr inbounds %struct._zend_jit_ctx, ptr %10, i32 0, i32 0
  %12 = load i32, ptr %5, align 4
  %13 = load ptr, ptr %4, align 8
  %14 = load i64, ptr %6, align 8
  %15 = call i32 @jit_CONST_ADDR(ptr noundef %13, i64 noundef %14)
  %16 = call i32 @ir_fold2(ptr noundef %11, i32 noundef 1560, i32 noundef %12, i32 noundef %15)
  store i32 %16, ptr %5, align 4
  br label %17

17:                                               ; preds = %9, %3
  %18 = load i32, ptr %5, align 4
  ret i32 %18
}

; Function Attrs: nounwind uwtable
define internal i32 @jit_IP(ptr noundef %0) #0 {
  %2 = alloca ptr, align 8
  store ptr %0, ptr %2, align 8
  %3 = load ptr, ptr %2, align 8
  %4 = getelementptr inbounds %struct._zend_jit_ctx, ptr %3, i32 0, i32 0
  %5 = call i32 @_ir_RLOAD(ptr noundef %4, i32 noundef 6, i32 noundef 15)
  ret i32 %5
}

; Function Attrs: nounwind uwtable
define internal i32 @jit_FP(ptr noundef %0) #0 {
  %2 = alloca ptr, align 8
  %3 = alloca ptr, align 8
  %4 = alloca i32, align 4
  store ptr %0, ptr %2, align 8
  %5 = load ptr, ptr %2, align 8
  %6 = getelementptr inbounds %struct._zend_jit_ctx, ptr %5, i32 0, i32 0
  %7 = getelementptr inbounds %struct._ir_ctx, ptr %6, i32 0, i32 40
  %8 = load i32, ptr %7, align 8
  %9 = icmp ne i32 %8, 0
  call void @llvm.assume(i1 %9)
  %10 = load ptr, ptr %2, align 8
  %11 = getelementptr inbounds %struct._zend_jit_ctx, ptr %10, i32 0, i32 7
  %12 = load i32, ptr %11, align 4
  %13 = icmp eq i32 %12, 0
  br i1 %13, label %14, label %20

14:                                               ; preds = %1
  %15 = load ptr, ptr %2, align 8
  %16 = getelementptr inbounds %struct._zend_jit_ctx, ptr %15, i32 0, i32 0
  %17 = call i32 @_ir_RLOAD(ptr noundef %16, i32 noundef 6, i32 noundef 14)
  %18 = load ptr, ptr %2, align 8
  %19 = getelementptr inbounds %struct._zend_jit_ctx, ptr %18, i32 0, i32 7
  store i32 %17, ptr %19, align 4
  br label %69

20:                                               ; preds = %1
  %21 = load ptr, ptr %2, align 8
  %22 = getelementptr inbounds %struct._zend_jit_ctx, ptr %21, i32 0, i32 0
  %23 = getelementptr inbounds %struct._ir_ctx, ptr %22, i32 0, i32 40
  %24 = load i32, ptr %23, align 8
  store i32 %24, ptr %4, align 4
  br label %25

25:                                               ; preds = %63, %20
  %26 = load i32, ptr %4, align 4
  %27 = load ptr, ptr %2, align 8
  %28 = getelementptr inbounds %struct._zend_jit_ctx, ptr %27, i32 0, i32 7
  %29 = load i32, ptr %28, align 4
  %30 = icmp eq i32 %26, %29
  br i1 %30, label %31, label %32

31:                                               ; preds = %25
  br label %68

32:                                               ; preds = %25
  %33 = load ptr, ptr %2, align 8
  %34 = getelementptr inbounds %struct._zend_jit_ctx, ptr %33, i32 0, i32 0
  %35 = getelementptr inbounds %struct._ir_ctx, ptr %34, i32 0, i32 0
  %36 = load ptr, ptr %35, align 8
  %37 = load i32, ptr %4, align 4
  %38 = sext i32 %37 to i64
  %39 = getelementptr inbounds %struct._ir_insn, ptr %36, i64 %38
  store ptr %39, ptr %3, align 8
  %40 = load ptr, ptr %3, align 8
  %41 = getelementptr inbounds %struct._ir_insn, ptr %40, i32 0, i32 0
  %42 = getelementptr inbounds %struct.anon, ptr %41, i32 0, i32 0
  %43 = getelementptr inbounds %struct.anon.0, ptr %42, i32 0, i32 0
  %44 = getelementptr inbounds %struct.anon.2, ptr %43, i32 0, i32 0
  %45 = load i8, ptr %44, align 8
  %46 = zext i8 %45 to i32
  %47 = icmp sge i32 %46, 89
  br i1 %47, label %57, label %48

48:                                               ; preds = %32
  %49 = load ptr, ptr %3, align 8
  %50 = getelementptr inbounds %struct._ir_insn, ptr %49, i32 0, i32 0
  %51 = getelementptr inbounds %struct.anon, ptr %50, i32 0, i32 0
  %52 = getelementptr inbounds %struct.anon.0, ptr %51, i32 0, i32 0
  %53 = getelementptr inbounds %struct.anon.2, ptr %52, i32 0, i32 0
  %54 = load i8, ptr %53, align 8
  %55 = zext i8 %54 to i32
  %56 = icmp eq i32 %55, 69
  br i1 %56, label %57, label %63

57:                                               ; preds = %48, %32
  %58 = load ptr, ptr %2, align 8
  %59 = getelementptr inbounds %struct._zend_jit_ctx, ptr %58, i32 0, i32 0
  %60 = call i32 @_ir_RLOAD(ptr noundef %59, i32 noundef 6, i32 noundef 14)
  %61 = load ptr, ptr %2, align 8
  %62 = getelementptr inbounds %struct._zend_jit_ctx, ptr %61, i32 0, i32 7
  store i32 %60, ptr %62, align 4
  br label %68

63:                                               ; preds = %48
  %64 = load ptr, ptr %3, align 8
  %65 = getelementptr inbounds %struct._ir_insn, ptr %64, i32 0, i32 0
  %66 = getelementptr inbounds %struct.anon, ptr %65, i32 0, i32 1
  %67 = load i32, ptr %66, align 4
  store i32 %67, ptr %4, align 4
  br label %25

68:                                               ; preds = %57, %31
  br label %69

69:                                               ; preds = %68, %14
  %70 = load ptr, ptr %2, align 8
  %71 = getelementptr inbounds %struct._zend_jit_ctx, ptr %70, i32 0, i32 7
  %72 = load i32, ptr %71, align 4
  ret i32 %72
}

; Function Attrs: nounwind uwtable
define internal i32 @jit_Z_TYPE_INFO(ptr noundef %0, i64 noundef %1) #0 {
  %3 = alloca i32, align 4
  %4 = alloca ptr, align 8
  %5 = alloca i64, align 8
  %6 = alloca i32, align 4
  store ptr %0, ptr %4, align 8
  store i64 %1, ptr %5, align 8
  %7 = load i64, ptr %5, align 8
  %8 = and i64 %7, 3
  %9 = icmp eq i64 %8, 0
  br i1 %9, label %10, label %18

10:                                               ; preds = %2
  %11 = load ptr, ptr %4, align 8
  %12 = getelementptr inbounds %struct._zend_jit_ctx, ptr %11, i32 0, i32 0
  %13 = load i64, ptr %5, align 8
  %14 = inttoptr i64 %13 to ptr
  %15 = getelementptr inbounds %struct._zval_struct, ptr %14, i32 0, i32 1
  %16 = load i32, ptr %15, align 8
  %17 = call i32 @ir_const_u32(ptr noundef %12, i32 noundef %16)
  store i32 %17, ptr %3, align 4
  br label %65

18:                                               ; preds = %2
  %19 = load i64, ptr %5, align 8
  %20 = and i64 %19, 3
  %21 = icmp eq i64 %20, 1
  br i1 %21, label %22, label %59

22:                                               ; preds = %18
  %23 = load i64, ptr %5, align 8
  %24 = and i64 %23, 3
  %25 = icmp eq i64 %24, 1
  call void @llvm.assume(i1 %25)
  %26 = load i64, ptr %5, align 8
  %27 = lshr i64 %26, 2
  %28 = and i64 %27, 63
  %29 = trunc i64 %28 to i8
  %30 = sext i8 %29 to i32
  %31 = icmp eq i32 %30, 14
  br i1 %31, label %32, label %35

32:                                               ; preds = %22
  %33 = load ptr, ptr %4, align 8
  %34 = call i32 @jit_FP(ptr noundef %33)
  store i32 %34, ptr %6, align 4
  br label %47

35:                                               ; preds = %22
  %36 = load i64, ptr %5, align 8
  %37 = lshr i64 %36, 2
  %38 = and i64 %37, 63
  %39 = trunc i64 %38 to i8
  %40 = sext i8 %39 to i32
  %41 = icmp eq i32 %40, 15
  br i1 %41, label %42, label %45

42:                                               ; preds = %35
  %43 = load ptr, ptr %4, align 8
  %44 = call i32 @jit_IP(ptr noundef %43)
  store i32 %44, ptr %6, align 4
  br label %46

45:                                               ; preds = %35
  unreachable

46:                                               ; preds = %42
  br label %47

47:                                               ; preds = %46, %32
  %48 = load ptr, ptr %4, align 8
  %49 = getelementptr inbounds %struct._zend_jit_ctx, ptr %48, i32 0, i32 0
  %50 = load ptr, ptr %4, align 8
  %51 = load i32, ptr %6, align 4
  %52 = load i64, ptr %5, align 8
  %53 = lshr i64 %52, 8
  %54 = trunc i64 %53 to i32
  %55 = zext i32 %54 to i64
  %56 = add i64 %55, 8
  %57 = call i32 @jit_ADD_OFFSET(ptr noundef %50, i32 noundef %51, i64 noundef %56)
  %58 = call i32 @_ir_LOAD(ptr noundef %49, i32 noundef 4, i32 noundef %57)
  store i32 %58, ptr %3, align 4
  br label %65

59:                                               ; preds = %18
  %60 = load ptr, ptr %4, align 8
  %61 = load ptr, ptr %4, align 8
  %62 = load i64, ptr %5, align 8
  %63 = call i32 @jit_ZVAL_ADDR(ptr noundef %61, i64 noundef %62)
  %64 = call i32 @jit_Z_TYPE_INFO_ref(ptr noundef %60, i32 noundef %63)
  store i32 %64, ptr %3, align 4
  br label %65

65:                                               ; preds = %59, %47, %10
  %66 = load i32, ptr %3, align 4
  ret i32 %66
}