; Function Attrs: nounwind uwtable
define internal fastcc i32 @jit_Z_TYPE_INFO(ptr noundef %0, i64 noundef %1) unnamed_addr #0 {
  %3 = and i64 %1, 3
  switch i64 %3, label %58 [
    i64 0, label %4
    i64 1, label %9
  ]

4:                                                ; preds = %2
  %5 = inttoptr i64 %1 to ptr
  %6 = getelementptr inbounds i8, ptr %5, i64 8
  %7 = load i32, ptr %6, align 8
  %8 = tail call i32 @ir_const_u32(ptr noundef %0, i32 noundef %7) #32
  br label %78

9:                                                ; preds = %2
  %10 = trunc i64 %1 to i32
  %11 = lshr i32 %10, 2
  %12 = and i32 %11, 63
  %13 = icmp eq i32 %12, 14
  br i1 %13, label %14, label %34

14:                                               ; preds = %9
  %15 = getelementptr inbounds i8, ptr %0, i64 248
  %16 = load i32, ptr %15, align 8
  %17 = icmp ne i32 %16, 0
  tail call void @llvm.assume(i1 %17)
  %18 = getelementptr inbounds i8, ptr %0, i64 700
  %19 = load i32, ptr %18, align 4
  %20 = icmp eq i32 %19, 0
  br i1 %20, label %.loopexit.sink.split.i, label %.preheader.i

.preheader.i:                                     ; preds = %14
  %21 = icmp eq i32 %16, %19
  br i1 %21, label %jit_FP.exit, label %.lr.ph.i

.lr.ph.i:                                         ; preds = %.preheader.i
  %22 = load ptr, ptr %0, align 8
  br label %23

23:                                               ; preds = %29, %.lr.ph.i
  %.015.i = phi i32 [ %16, %.lr.ph.i ], [ %31, %29 ]
  %24 = sext i32 %.015.i to i64
  %25 = getelementptr inbounds %struct._ir_insn, ptr %22, i64 %24
  %26 = load i8, ptr %25, align 8
  %27 = icmp ugt i8 %26, 88
  %28 = icmp eq i8 %26, 69
  %or.cond.i = or i1 %27, %28
  br i1 %or.cond.i, label %.loopexit.sink.split.i, label %29

29:                                               ; preds = %23
  %30 = getelementptr inbounds i8, ptr %25, i64 4
  %31 = load i32, ptr %30, align 4
  %32 = icmp eq i32 %31, %19
  br i1 %32, label %jit_FP.exit, label %23

.loopexit.sink.split.i:                           ; preds = %23, %14
  %33 = tail call i32 @_ir_RLOAD(ptr noundef nonnull %0, i32 noundef 6, i32 noundef 14) #32
  store i32 %33, ptr %18, align 4
  br label %jit_FP.exit

34:                                               ; preds = %9
  %35 = icmp eq i32 %12, 15
  tail call void @llvm.assume(i1 %35)
  %36 = tail call i32 @_ir_RLOAD(ptr noundef %0, i32 noundef 6, i32 noundef 15) #32
  br label %jit_FP.exit

jit_FP.exit:                                      ; preds = %29, %.loopexit.sink.split.i, %.preheader.i, %34
  %.0 = phi i32 [ %36, %34 ], [ %16, %.preheader.i ], [ %33, %.loopexit.sink.split.i ], [ %19, %29 ]
  %37 = lshr i64 %1, 8
  %38 = and i64 %37, 4294967295
  %39 = add nuw nsw i64 %38, 8
  %40 = getelementptr inbounds i8, ptr %0, i64 808
  %41 = tail call ptr @zend_hash_index_lookup(ptr noundef nonnull %40, i64 noundef %39) #32
  %42 = getelementptr inbounds i8, ptr %41, i64 8
  %43 = load i8, ptr %42, align 8
  %44 = icmp eq i8 %43, 4
  br i1 %44, label %45, label %53

45:                                               ; preds = %jit_FP.exit
  %46 = load i64, ptr %41, align 8
  %47 = trunc i64 %46 to i32
  %48 = load ptr, ptr %0, align 8
  %sext.i.i = shl i64 %46, 32
  %49 = ashr exact i64 %sext.i.i, 32
  %50 = getelementptr inbounds %struct._ir_insn, ptr %48, i64 %49
  %51 = load i16, ptr %50, align 8
  %52 = icmp eq i16 %51, 1542
  tail call void @llvm.assume(i1 %52)
  br label %jit_ADD_OFFSET.exit

53:                                               ; preds = %jit_FP.exit
  %54 = tail call i32 @ir_unique_const_addr(ptr noundef %0, i64 noundef %39) #32
  %55 = sext i32 %54 to i64
  store i64 %55, ptr %41, align 8
  store i32 4, ptr %42, align 8
  br label %jit_ADD_OFFSET.exit

jit_ADD_OFFSET.exit:                              ; preds = %45, %53
  %.0.i.i = phi i32 [ %47, %45 ], [ %54, %53 ]
  %56 = tail call i32 @ir_fold2(ptr noundef %0, i32 noundef 1560, i32 noundef %.0, i32 noundef %.0.i.i) #32
  %57 = tail call i32 @_ir_LOAD(ptr noundef %0, i32 noundef 4, i32 noundef %56) #32
  br label %78

58:                                               ; preds = %2
  %59 = tail call fastcc i32 @jit_ZVAL_ADDR(ptr noundef %0, i64 noundef %1)
  %60 = getelementptr inbounds i8, ptr %0, i64 808
  %61 = tail call ptr @zend_hash_index_lookup(ptr noundef nonnull %60, i64 noundef 8) #32
  %62 = getelementptr inbounds i8, ptr %61, i64 8
  %63 = load i8, ptr %62, align 8
  %64 = icmp eq i8 %63, 4
  br i1 %64, label %65, label %73

65:                                               ; preds = %58
  %66 = load i64, ptr %61, align 8
  %67 = trunc i64 %66 to i32
  %68 = load ptr, ptr %0, align 8
  %sext.i.i.i = shl i64 %66, 32
  %69 = ashr exact i64 %sext.i.i.i, 32
  %70 = getelementptr inbounds %struct._ir_insn, ptr %68, i64 %69
  %71 = load i16, ptr %70, align 8
  %72 = icmp eq i16 %71, 1542
  tail call void @llvm.assume(i1 %72)
  br label %jit_Z_TYPE_INFO_ref.exit

73:                                               ; preds = %58
  %74 = tail call i32 @ir_unique_const_addr(ptr noundef %0, i64 noundef 8) #32
  %75 = sext i32 %74 to i64
  store i64 %75, ptr %61, align 8
  store i32 4, ptr %62, align 8
  br label %jit_Z_TYPE_INFO_ref.exit

jit_Z_TYPE_INFO_ref.exit:                         ; preds = %65, %73
  %.0.i.i.i = phi i32 [ %67, %65 ], [ %74, %73 ]
  %76 = tail call i32 @ir_fold2(ptr noundef %0, i32 noundef 1560, i32 noundef %59, i32 noundef %.0.i.i.i) #32
  %77 = tail call i32 @_ir_LOAD(ptr noundef %0, i32 noundef 4, i32 noundef %76) #32
  br label %78

78:                                               ; preds = %jit_Z_TYPE_INFO_ref.exit, %jit_ADD_OFFSET.exit, %4
  %.016 = phi i32 [ %8, %4 ], [ %57, %jit_ADD_OFFSET.exit ], [ %77, %jit_Z_TYPE_INFO_ref.exit ]
  ret i32 %.016
}